target datalayout = "e-m:e-p270:32:32-p271:32:32-p272:64:64-i64:64-i128:128-f80:128-n8:16:32:64-S128"
target triple = "x86_64-pc-linux-gnu"

; Function Attrs: nounwind uwtable
define void @j2date(i32 noundef %0, ptr noundef %1, ptr noundef %2, ptr noundef %3) #0 {
  %5 = alloca i32, align 4
  %6 = alloca ptr, align 8
  %7 = alloca ptr, align 8
  %8 = alloca ptr, align 8
  %9 = alloca i32, align 4
  %10 = alloca i32, align 4
  %11 = alloca i32, align 4
  %12 = alloca i32, align 4
  store i32 %0, ptr %5, align 4
  store ptr %1, ptr %6, align 8
  store ptr %2, ptr %7, align 8
  store ptr %3, ptr %8, align 8
  call void @llvm.lifetime.start.p0(i64 4, ptr %9) #9
  call void @llvm.lifetime.start.p0(i64 4, ptr %10) #9
  call void @llvm.lifetime.start.p0(i64 4, ptr %11) #9
  call void @llvm.lifetime.start.p0(i64 4, ptr %12) #9
  %13 = load i32, ptr %5, align 4
  store i32 %13, ptr %9, align 4
  %14 = load i32, ptr %9, align 4
  %15 = add i32 %14, 32044
  store i32 %15, ptr %9, align 4
  %16 = load i32, ptr %9, align 4
  %17 = udiv i32 %16, 146097
  store i32 %17, ptr %10, align 4
  %18 = load i32, ptr %9, align 4
  %19 = load i32, ptr %10, align 4
  %20 = mul i32 %19, 146097
  %21 = sub i32 %18, %20
  %22 = mul i32 %21, 4
  %23 = add i32 %22, 3
  store i32 %23, ptr %11, align 4
  %24 = load i32, ptr %10, align 4
  %25 = mul i32 %24, 3
  %26 = add i32 60, %25
  %27 = load i32, ptr %11, align 4
  %28 = udiv i32 %27, 146097
  %29 = add i32 %26, %28
  %30 = load i32, ptr %9, align 4
  %31 = add i32 %30, %29
  store i32 %31, ptr %9, align 4
  %32 = load i32, ptr %9, align 4
  %33 = udiv i32 %32, 1461
  store i32 %33, ptr %10, align 4
  %34 = load i32, ptr %10, align 4
  %35 = mul i32 %34, 1461
  %36 = load i32, ptr %9, align 4
  %37 = sub i32 %36, %35
  store i32 %37, ptr %9, align 4
  %38 = load i32, ptr %9, align 4
  %39 = mul i32 %38, 4
  %40 = udiv i32 %39, 1461
  store i32 %40, ptr %12, align 4
  %41 = load i32, ptr %12, align 4
  %42 = icmp ne i32 %41, 0
  br i1 %42, label %43, label %47

43:                                               ; preds = %4
  %44 = load i32, ptr %9, align 4
  %45 = add i32 %44, 305
  %46 = urem i32 %45, 365
  br label %51

47:                                               ; preds = %4
  %48 = load i32, ptr %9, align 4
  %49 = add i32 %48, 306
  %50 = urem i32 %49, 366
  br label %51

51:                                               ; preds = %47, %43
  %52 = phi i32 [ %46, %43 ], [ %50, %47 ]
  %53 = add i32 %52, 123
  store i32 %53, ptr %9, align 4
  %54 = load i32, ptr %10, align 4
  %55 = mul i32 %54, 4
  %56 = load i32, ptr %12, align 4
  %57 = add i32 %56, %55
  store i32 %57, ptr %12, align 4
  %58 = load i32, ptr %12, align 4
  %59 = sub i32 %58, 4800
  %60 = load ptr, ptr %6, align 8
  store i32 %59, ptr %60, align 4
  %61 = load i32, ptr %9, align 4
  %62 = mul i32 %61, 2141
  %63 = udiv i32 %62, 65536
  store i32 %63, ptr %10, align 4
  %64 = load i32, ptr %9, align 4
  %65 = load i32, ptr %10, align 4
  %66 = mul i32 7834, %65
  %67 = udiv i32 %66, 256
  %68 = sub i32 %64, %67
  %69 = load ptr, ptr %8, align 8
  store i32 %68, ptr %69, align 4
  %70 = load i32, ptr %10, align 4
  %71 = add i32 %70, 10
  %72 = urem i32 %71, 12
  %73 = add i32 %72, 1
  %74 = load ptr, ptr %7, align 8
  store i32 %73, ptr %74, align 4
  call void @llvm.lifetime.end.p0(i64 4, ptr %12) #9
  call void @llvm.lifetime.end.p0(i64 4, ptr %11) #9
  call void @llvm.lifetime.end.p0(i64 4, ptr %10) #9
  call void @llvm.lifetime.end.p0(i64 4, ptr %9) #9
  ret void
}