; Function Attrs: mustprogress nofree norecurse nosync nounwind willreturn memory(argmem: write) uwtable
define void @j2date(i32 noundef %0, ptr noundef writeonly captures(none) initializes((0, 4)) %1, ptr noundef writeonly captures(none) initializes((0, 4)) %2, ptr noundef writeonly captures(none) initializes((0, 4)) %3) local_unnamed_addr #4 {
  %5 = add i32 %0, 32044
  %6 = udiv i32 %5, 146097
  %.neg = mul i32 %6, 1073595727
  %7 = add i32 %.neg, %5
  %8 = shl i32 %7, 2
  %9 = or disjoint i32 %8, 3
  %10 = mul nuw nsw i32 %6, 3
  %11 = udiv i32 %9, 146097
  %12 = add i32 %0, 32104
  %13 = add i32 %12, %10
  %14 = add i32 %13, %11
  %15 = udiv i32 %14, 1461
  %.neg24 = mul i32 %15, -1461
  %16 = add i32 %.neg24, %14
  %17 = shl i32 %16, 2
  %.not = icmp ult i32 %17, 1461
  br i1 %.not, label %21, label %18

18:                                               ; preds = %4
  %19 = add i32 %16, 305
  %20 = urem i32 %19, 365
  br label %24

21:                                               ; preds = %4
  %22 = add i32 %16, 306
  %23 = urem i32 %22, 366
  br label %24

24:                                               ; preds = %21, %18
  %25 = phi i32 [ %20, %18 ], [ %23, %21 ]
  %26 = udiv i32 %17, 1461
  %27 = add nuw nsw i32 %25, 123
  %28 = shl nuw nsw i32 %15, 2
  %29 = add nsw i32 %28, -4800
  %30 = add nsw i32 %29, %26
  store i32 %30, ptr %1, align 4
  %31 = mul nuw nsw i32 %27, 2141
  %32 = lshr i32 %31, 16
  %33 = mul nuw nsw i32 %32, 7834
  %34 = lshr i32 %33, 8
  %35 = sub nsw i32 %27, %34
  store i32 %35, ptr %3, align 4
  %36 = trunc nuw nsw i32 %32 to i8
  %.lhs.trunc = add nuw nsw i8 %36, 10
  %37 = urem i8 %.lhs.trunc, 12
  %narrow = add nuw nsw i8 %37, 1
  %38 = zext nneg i8 %narrow to i32
  store i32 %38, ptr %2, align 4
  ret void
}